; Function Attrs: mustprogress nounwind uwtable
define internal void @"_ZNSt17_Function_handlerIFvPKcEZ4mainE4$_46E9_M_invokeERKSt9_Any_dataOS1_"(ptr nocapture noundef nonnull readonly align 8 dereferenceable(16) %0, ptr nocapture noundef nonnull readonly align 8 dereferenceable(8) %1) #10 align 2 {
  %.val = load ptr, ptr %1, align 8
  %3 = tail call i64 @strtoull(ptr nocapture noundef %.val, ptr noundef null, i32 noundef 0) #34
  %4 = load ptr, ptr %0, align 8
  store i64 %3, ptr %4, align 8
  %5 = load ptr, ptr %0, align 8
  %6 = load i64, ptr %5, align 8
  %7 = add i64 %6, -16
  %or.cond.i.i.i = icmp ult i64 %7, 4081
  %8 = tail call i64 @llvm.ctpop.i64(i64 %6), !range !103
  %.not.i.i.i = icmp ult i64 %8, 2
  %or.cond2.i.i.i = select i1 %or.cond.i.i.i, i1 %.not.i.i.i, i1 false
  br i1 %or.cond2.i.i.i, label %"_ZSt10__invoke_rIvRZ4mainE4$_46JPKcEENSt9enable_ifIX16is_invocable_r_vIT_T0_DpT1_EES5_E4typeEOS6_DpOS7_.exit", label %9

9:                                                ; preds = %2
  %10 = load ptr, ptr @stderr, align 8
  %11 = tail call i32 (ptr, ptr, ...) @fprintf(ptr noundef %10, ptr noundef nonnull @.str.128, i32 noundef 16, i32 noundef 4096) #36
  tail call void @exit(i32 noundef -1) #30
  unreachable

"_ZSt10__invoke_rIvRZ4mainE4$_46JPKcEENSt9enable_ifIX16is_invocable_r_vIT_T0_DpT1_EES5_E4typeEOS6_DpOS7_.exit": ; preds = %2
  ret void
}